	.file	"sharing_measure.cpp"
	.text
.Ltext0:
	.section	.rodata
	.type	_ZStL19piecewise_construct, @object
	.size	_ZStL19piecewise_construct, 1
_ZStL19piecewise_construct:
	.zero	1
	.local	_ZStL8__ioinit
	.comm	_ZStL8__ioinit,1,1
	.section	.text._ZNSt6chrono8durationIlSt5ratioILl1ELl1000000000EEEC1IlvEERKT_,"axG",@progbits,_ZNSt6chrono8durationIlSt5ratioILl1ELl1000000000EEEC1IlvEERKT_,comdat
	.align 2
	.weak	_ZNSt6chrono8durationIlSt5ratioILl1ELl1000000000EEEC1IlvEERKT_
	.type	_ZNSt6chrono8durationIlSt5ratioILl1ELl1000000000EEEC1IlvEERKT_, @function
_ZNSt6chrono8durationIlSt5ratioILl1ELl1000000000EEEC1IlvEERKT_:
.LFB1745:
	.file 1 "/usr/include/c++/7/chrono"
	.loc 1 327 0
	.cfi_startproc
	pushq	%rbp
	.cfi_def_cfa_offset 16
	.cfi_offset 6, -16
	movq	%rsp, %rbp
	.cfi_def_cfa_register 6
	movq	%rdi, -8(%rbp)
	movq	%rsi, -16(%rbp)
.LBB2:
	.loc 1 328 0
	movq	-16(%rbp), %rax
	movq	(%rax), %rdx
	movq	-8(%rbp), %rax
	movq	%rdx, (%rax)
.LBE2:
	nop
	popq	%rbp
	.cfi_def_cfa 7, 8
	ret
	.cfi_endproc
.LFE1745:
	.size	_ZNSt6chrono8durationIlSt5ratioILl1ELl1000000000EEEC1IlvEERKT_, .-_ZNSt6chrono8durationIlSt5ratioILl1ELl1000000000EEEC1IlvEERKT_
	.section	.text._ZNKSt6chrono8durationIlSt5ratioILl1ELl1000000000EEE5countEv,"axG",@progbits,_ZNKSt6chrono8durationIlSt5ratioILl1ELl1000000000EEE5countEv,comdat
	.align 2
	.weak	_ZNKSt6chrono8durationIlSt5ratioILl1ELl1000000000EEE5countEv
	.type	_ZNKSt6chrono8durationIlSt5ratioILl1ELl1000000000EEE5countEv, @function
_ZNKSt6chrono8durationIlSt5ratioILl1ELl1000000000EEE5countEv:
.LFB1749:
	.loc 1 342 0
	.cfi_startproc
	pushq	%rbp
	.cfi_def_cfa_offset 16
	.cfi_offset 6, -16
	movq	%rsp, %rbp
	.cfi_def_cfa_register 6
	movq	%rdi, -8(%rbp)
	.loc 1 343 0
	movq	-8(%rbp), %rax
	movq	(%rax), %rax
	popq	%rbp
	.cfi_def_cfa 7, 8
	ret
	.cfi_endproc
.LFE1749:
	.size	_ZNKSt6chrono8durationIlSt5ratioILl1ELl1000000000EEE5countEv, .-_ZNKSt6chrono8durationIlSt5ratioILl1ELl1000000000EEE5countEv
	.section	.text._ZNKSt6chrono10time_pointINS_3_V212system_clockENS_8durationIlSt5ratioILl1ELl1000000000EEEEE16time_since_epochEv,"axG",@progbits,_ZNKSt6chrono10time_pointINS_3_V212system_clockENS_8durationIlSt5ratioILl1ELl1000000000EEEEE16time_since_epochEv,comdat
	.align 2
	.weak	_ZNKSt6chrono10time_pointINS_3_V212system_clockENS_8durationIlSt5ratioILl1ELl1000000000EEEEE16time_since_epochEv
	.type	_ZNKSt6chrono10time_pointINS_3_V212system_clockENS_8durationIlSt5ratioILl1ELl1000000000EEEEE16time_since_epochEv, @function
_ZNKSt6chrono10time_pointINS_3_V212system_clockENS_8durationIlSt5ratioILl1ELl1000000000EEEEE16time_since_epochEv:
.LFB1751:
	.loc 1 639 0
	.cfi_startproc
	pushq	%rbp
	.cfi_def_cfa_offset 16
	.cfi_offset 6, -16
	movq	%rsp, %rbp
	.cfi_def_cfa_register 6
	movq	%rdi, -8(%rbp)
	.loc 1 640 0
	movq	-8(%rbp), %rax
	movq	(%rax), %rax
	popq	%rbp
	.cfi_def_cfa 7, 8
	ret
	.cfi_endproc
.LFE1751:
	.size	_ZNKSt6chrono10time_pointINS_3_V212system_clockENS_8durationIlSt5ratioILl1ELl1000000000EEEEE16time_since_epochEv, .-_ZNKSt6chrono10time_pointINS_3_V212system_clockENS_8durationIlSt5ratioILl1ELl1000000000EEEEE16time_since_epochEv
	.section	.rodata
	.align 4
	.type	_ZN9__gnu_cxxL21__default_lock_policyE, @object
	.size	_ZN9__gnu_cxxL21__default_lock_policyE, 4
_ZN9__gnu_cxxL21__default_lock_policyE:
	.long	2
	.type	_ZStL13allocator_arg, @object
	.size	_ZStL13allocator_arg, 1
_ZStL13allocator_arg:
	.zero	1
	.type	_ZStL6ignore, @object
	.size	_ZStL6ignore, 1
_ZStL6ignore:
	.zero	1
	.globl	x
	.bss
	.align 4
	.type	x, @object
	.size	x, 4
x:
	.zero	4
	.section	.rodata
.LC0:
	.string	"Thread1"
	.text
	.globl	_Z3th1Pv
	.type	_Z3th1Pv, @function
_Z3th1Pv:
.LFB2719:
	.file 2 "sharing_measure.cpp"
	.loc 2 9 0
	.cfi_startproc
	pushq	%rbp
	.cfi_def_cfa_offset 16
	.cfi_offset 6, -16
	movq	%rsp, %rbp
	.cfi_def_cfa_register 6
	subq	$32, %rsp
	movq	%rdi, -24(%rbp)
	.loc 2 10 0
	leaq	.LC0(%rip), %rdi
	call	puts@PLT
.LBB3:
	.loc 2 16 0
	movl	$0, -4(%rbp)
.L10:
	.loc 2 16 0 is_stmt 0 discriminator 1
	cmpl	$999999, -4(%rbp)
	jg	.L7
.L9:
	.loc 2 21 0 is_stmt 1
	movl	-4(%rbp), %eax
	leal	(%rax,%rax), %edx
	movl	x(%rip), %eax
	cmpl	%eax, %edx
	sete	%al
	testb	%al, %al
	je	.L8
	jmp	.L9
.L8:
	.loc 2 24 0 discriminator 2
	movl	x(%rip), %eax
	addl	$1, %eax
	movl	%eax, x(%rip)
	.loc 2 16 0 discriminator 2
	addl	$1, -4(%rbp)
	jmp	.L10
.L7:
.LBE3:
	.loc 2 28 0
	nop
	leave
	.cfi_def_cfa 7, 8
	ret
	.cfi_endproc
.LFE2719:
	.size	_Z3th1Pv, .-_Z3th1Pv
	.section	.rodata
.LC1:
	.string	"Thread2"
	.text
	.globl	_Z3th2Pv
	.type	_Z3th2Pv, @function
_Z3th2Pv:
.LFB2720:
	.loc 2 30 0
	.cfi_startproc
	pushq	%rbp
	.cfi_def_cfa_offset 16
	.cfi_offset 6, -16
	movq	%rsp, %rbp
	.cfi_def_cfa_register 6
	subq	$32, %rsp
	movq	%rdi, -24(%rbp)
	.loc 2 31 0
	leaq	.LC1(%rip), %rdi
	call	puts@PLT
.LBB4:
	.loc 2 37 0
	movl	$0, -4(%rbp)
.L15:
	.loc 2 37 0 is_stmt 0 discriminator 1
	cmpl	$999999, -4(%rbp)
	jg	.L12
.L14:
	.loc 2 42 0 is_stmt 1
	movl	-4(%rbp), %eax
	addl	%eax, %eax
	leal	1(%rax), %edx
	movl	x(%rip), %eax
	cmpl	%eax, %edx
	sete	%al
	testb	%al, %al
	je	.L13
	jmp	.L14
.L13:
	.loc 2 46 0 discriminator 2
	movl	x(%rip), %eax
	addl	$1, %eax
	movl	%eax, x(%rip)
	.loc 2 37 0 discriminator 2
	addl	$1, -4(%rbp)
	jmp	.L15
.L12:
.LBE4:
	.loc 2 50 0
	nop
	leave
	.cfi_def_cfa 7, 8
	ret
	.cfi_endproc
.LFE2720:
	.size	_Z3th2Pv, .-_Z3th2Pv
	.section	.text._ZNSt6chronomiIlSt5ratioILl1ELl1000000000EElS2_EENSt11common_typeIJNS_8durationIT_T0_EENS4_IT1_T2_EEEE4typeERKS7_RKSA_,"axG",@progbits,_ZNSt6chronomiIlSt5ratioILl1ELl1000000000EElS2_EENSt11common_typeIJNS_8durationIT_T0_EENS4_IT1_T2_EEEE4typeERKS7_RKSA_,comdat
	.weak	_ZNSt6chronomiIlSt5ratioILl1ELl1000000000EElS2_EENSt11common_typeIJNS_8durationIT_T0_EENS4_IT1_T2_EEEE4typeERKS7_RKSA_
	.type	_ZNSt6chronomiIlSt5ratioILl1ELl1000000000EElS2_EENSt11common_typeIJNS_8durationIT_T0_EENS4_IT1_T2_EEEE4typeERKS7_RKSA_, @function
_ZNSt6chronomiIlSt5ratioILl1ELl1000000000EElS2_EENSt11common_typeIJNS_8durationIT_T0_EENS4_IT1_T2_EEEE4typeERKS7_RKSA_:
.LFB2723:
	.loc 1 459 0
	.cfi_startproc
	pushq	%rbp
	.cfi_def_cfa_offset 16
	.cfi_offset 6, -16
	movq	%rsp, %rbp
	.cfi_def_cfa_register 6
	pushq	%rbx
	subq	$72, %rsp
	.cfi_offset 3, -24
	movq	%rdi, -72(%rbp)
	movq	%rsi, -80(%rbp)
	.loc 1 459 0
	movq	%fs:40, %rax
	movq	%rax, -24(%rbp)
	xorl	%eax, %eax
	.loc 1 465 0
	movq	-72(%rbp), %rax
	movq	(%rax), %rax
	movq	%rax, -56(%rbp)
	leaq	-56(%rbp), %rax
	movq	%rax, %rdi
	call	_ZNKSt6chrono8durationIlSt5ratioILl1ELl1000000000EEE5countEv
	movq	%rax, %rbx
	movq	-80(%rbp), %rax
	movq	(%rax), %rax
	movq	%rax, -48(%rbp)
	leaq	-48(%rbp), %rax
	movq	%rax, %rdi
	call	_ZNKSt6chrono8durationIlSt5ratioILl1ELl1000000000EEE5countEv
	subq	%rax, %rbx
	movq	%rbx, %rax
	movq	%rax, -40(%rbp)
	leaq	-40(%rbp), %rdx
	leaq	-32(%rbp), %rax
	movq	%rdx, %rsi
	movq	%rax, %rdi
	call	_ZNSt6chrono8durationIlSt5ratioILl1ELl1000000000EEEC1IlvEERKT_
	movq	-32(%rbp), %rax
	.loc 1 466 0
	movq	-24(%rbp), %rcx
	xorq	%fs:40, %rcx
	je	.L18
	call	__stack_chk_fail@PLT
.L18:
	addq	$72, %rsp
	popq	%rbx
	popq	%rbp
	.cfi_def_cfa 7, 8
	ret
	.cfi_endproc
.LFE2723:
	.size	_ZNSt6chronomiIlSt5ratioILl1ELl1000000000EElS2_EENSt11common_typeIJNS_8durationIT_T0_EENS4_IT1_T2_EEEE4typeERKS7_RKSA_, .-_ZNSt6chronomiIlSt5ratioILl1ELl1000000000EElS2_EENSt11common_typeIJNS_8durationIT_T0_EENS4_IT1_T2_EEEE4typeERKS7_RKSA_
	.section	.text._ZNSt6chronomiINS_3_V212system_clockENS_8durationIlSt5ratioILl1ELl1000000000EEEES6_EENSt11common_typeIJT0_T1_EE4typeERKNS_10time_pointIT_S8_EERKNSC_ISD_S9_EE,"axG",@progbits,_ZNSt6chronomiINS_3_V212system_clockENS_8durationIlSt5ratioILl1ELl1000000000EEEES6_EENSt11common_typeIJT0_T1_EE4typeERKNS_10time_pointIT_S8_EERKNSC_ISD_S9_EE,comdat
	.weak	_ZNSt6chronomiINS_3_V212system_clockENS_8durationIlSt5ratioILl1ELl1000000000EEEES6_EENSt11common_typeIJT0_T1_EE4typeERKNS_10time_pointIT_S8_EERKNSC_ISD_S9_EE
	.type	_ZNSt6chronomiINS_3_V212system_clockENS_8durationIlSt5ratioILl1ELl1000000000EEEES6_EENSt11common_typeIJT0_T1_EE4typeERKNS_10time_pointIT_S8_EERKNSC_ISD_S9_EE, @function
_ZNSt6chronomiINS_3_V212system_clockENS_8durationIlSt5ratioILl1ELl1000000000EEEES6_EENSt11common_typeIJT0_T1_EE4typeERKNS_10time_pointIT_S8_EERKNSC_ISD_S9_EE:
.LFB2722:
	.loc 1 752 0
	.cfi_startproc
	pushq	%rbp
	.cfi_def_cfa_offset 16
	.cfi_offset 6, -16
	movq	%rsp, %rbp
	.cfi_def_cfa_register 6
	subq	$48, %rsp
	movq	%rdi, -40(%rbp)
	movq	%rsi, -48(%rbp)
	.loc 1 752 0
	movq	%fs:40, %rax
	movq	%rax, -8(%rbp)
	xorl	%eax, %eax
	.loc 1 754 0
	movq	-48(%rbp), %rax
	movq	%rax, %rdi
	call	_ZNKSt6chrono10time_pointINS_3_V212system_clockENS_8durationIlSt5ratioILl1ELl1000000000EEEEE16time_since_epochEv
	movq	%rax, -16(%rbp)
	movq	-40(%rbp), %rax
	movq	%rax, %rdi
	call	_ZNKSt6chrono10time_pointINS_3_V212system_clockENS_8durationIlSt5ratioILl1ELl1000000000EEEEE16time_since_epochEv
	movq	%rax, -24(%rbp)
	leaq	-16(%rbp), %rdx
	leaq	-24(%rbp), %rax
	movq	%rdx, %rsi
	movq	%rax, %rdi
	call	_ZNSt6chronomiIlSt5ratioILl1ELl1000000000EElS2_EENSt11common_typeIJNS_8durationIT_T0_EENS4_IT1_T2_EEEE4typeERKS7_RKSA_
	movq	-8(%rbp), %rcx
	xorq	%fs:40, %rcx
	je	.L21
	call	__stack_chk_fail@PLT
.L21:
	leave
	.cfi_def_cfa 7, 8
	ret
	.cfi_endproc
.LFE2722:
	.size	_ZNSt6chronomiINS_3_V212system_clockENS_8durationIlSt5ratioILl1ELl1000000000EEEES6_EENSt11common_typeIJT0_T1_EE4typeERKNS_10time_pointIT_S8_EERKNSC_ISD_S9_EE, .-_ZNSt6chronomiINS_3_V212system_clockENS_8durationIlSt5ratioILl1ELl1000000000EEEES6_EENSt11common_typeIJT0_T1_EE4typeERKNS_10time_pointIT_S8_EERKNSC_ISD_S9_EE
	.section	.text._ZNSt6chrono8durationIlSt5ratioILl1ELl1000000EEEC1IlvEERKT_,"axG",@progbits,_ZNSt6chrono8durationIlSt5ratioILl1ELl1000000EEEC1IlvEERKT_,comdat
	.align 2
	.weak	_ZNSt6chrono8durationIlSt5ratioILl1ELl1000000EEEC1IlvEERKT_
	.type	_ZNSt6chrono8durationIlSt5ratioILl1ELl1000000EEEC1IlvEERKT_, @function
_ZNSt6chrono8durationIlSt5ratioILl1ELl1000000EEEC1IlvEERKT_:
.LFB2728:
	.loc 1 327 0
	.cfi_startproc
	pushq	%rbp
	.cfi_def_cfa_offset 16
	.cfi_offset 6, -16
	movq	%rsp, %rbp
	.cfi_def_cfa_register 6
	movq	%rdi, -8(%rbp)
	movq	%rsi, -16(%rbp)
.LBB5:
	.loc 1 328 0
	movq	-16(%rbp), %rax
	movq	(%rax), %rdx
	movq	-8(%rbp), %rax
	movq	%rdx, (%rax)
.LBE5:
	nop
	popq	%rbp
	.cfi_def_cfa 7, 8
	ret
	.cfi_endproc
.LFE2728:
	.size	_ZNSt6chrono8durationIlSt5ratioILl1ELl1000000EEEC1IlvEERKT_, .-_ZNSt6chrono8durationIlSt5ratioILl1ELl1000000EEEC1IlvEERKT_
	.section	.text._ZNSt6chrono20__duration_cast_implINS_8durationIlSt5ratioILl1ELl1000000EEEES2_ILl1ELl1000EElLb1ELb0EE6__castIlS2_ILl1ELl1000000000EEEES4_RKNS1_IT_T0_EE,"axG",@progbits,_ZNSt6chrono20__duration_cast_implINS_8durationIlSt5ratioILl1ELl1000000EEEES2_ILl1ELl1000EElLb1ELb0EE6__castIlS2_ILl1ELl1000000000EEEES4_RKNS1_IT_T0_EE,comdat
	.weak	_ZNSt6chrono20__duration_cast_implINS_8durationIlSt5ratioILl1ELl1000000EEEES2_ILl1ELl1000EElLb1ELb0EE6__castIlS2_ILl1ELl1000000000EEEES4_RKNS1_IT_T0_EE
	.type	_ZNSt6chrono20__duration_cast_implINS_8durationIlSt5ratioILl1ELl1000000EEEES2_ILl1ELl1000EElLb1ELb0EE6__castIlS2_ILl1ELl1000000000EEEES4_RKNS1_IT_T0_EE, @function
_ZNSt6chrono20__duration_cast_implINS_8durationIlSt5ratioILl1ELl1000000EEEES2_ILl1ELl1000EElLb1ELb0EE6__castIlS2_ILl1ELl1000000000EEEES4_RKNS1_IT_T0_EE:
.LFB2725:
	.loc 1 159 0
	.cfi_startproc
	pushq	%rbp
	.cfi_def_cfa_offset 16
	.cfi_offset 6, -16
	movq	%rsp, %rbp
	.cfi_def_cfa_register 6
	subq	$48, %rsp
	movq	%rdi, -40(%rbp)
	.loc 1 159 0
	movq	%fs:40, %rax
	movq	%rax, -8(%rbp)
	xorl	%eax, %eax
	.loc 1 163 0
	movq	-40(%rbp), %rax
	movq	%rax, %rdi
	call	_ZNKSt6chrono8durationIlSt5ratioILl1ELl1000000000EEE5countEv
	movq	%rax, %rcx
	movabsq	$2361183241434822607, %rdx
	movq	%rcx, %rax
	imulq	%rdx
	sarq	$7, %rdx
	movq	%rcx, %rax
	sarq	$63, %rax
	subq	%rax, %rdx
	movq	%rdx, %rax
	movq	%rax, -24(%rbp)
	leaq	-24(%rbp), %rdx
	leaq	-16(%rbp), %rax
	movq	%rdx, %rsi
	movq	%rax, %rdi
	call	_ZNSt6chrono8durationIlSt5ratioILl1ELl1000000EEEC1IlvEERKT_
	movq	-16(%rbp), %rax
	.loc 1 164 0
	movq	-8(%rbp), %rsi
	xorq	%fs:40, %rsi
	je	.L25
	call	__stack_chk_fail@PLT
.L25:
	leave
	.cfi_def_cfa 7, 8
	ret
	.cfi_endproc
.LFE2725:
	.size	_ZNSt6chrono20__duration_cast_implINS_8durationIlSt5ratioILl1ELl1000000EEEES2_ILl1ELl1000EElLb1ELb0EE6__castIlS2_ILl1ELl1000000000EEEES4_RKNS1_IT_T0_EE, .-_ZNSt6chrono20__duration_cast_implINS_8durationIlSt5ratioILl1ELl1000000EEEES2_ILl1ELl1000EElLb1ELb0EE6__castIlS2_ILl1ELl1000000000EEEES4_RKNS1_IT_T0_EE
	.section	.text._ZNSt6chrono13duration_castINS_8durationIlSt5ratioILl1ELl1000000EEEElS2_ILl1ELl1000000000EEEENSt9enable_ifIXsrNS_13__is_durationIT_EE5valueES8_E4typeERKNS1_IT0_T1_EE,"axG",@progbits,_ZNSt6chrono13duration_castINS_8durationIlSt5ratioILl1ELl1000000EEEElS2_ILl1ELl1000000000EEEENSt9enable_ifIXsrNS_13__is_durationIT_EE5valueES8_E4typeERKNS1_IT0_T1_EE,comdat
	.weak	_ZNSt6chrono13duration_castINS_8durationIlSt5ratioILl1ELl1000000EEEElS2_ILl1ELl1000000000EEEENSt9enable_ifIXsrNS_13__is_durationIT_EE5valueES8_E4typeERKNS1_IT0_T1_EE
	.type	_ZNSt6chrono13duration_castINS_8durationIlSt5ratioILl1ELl1000000EEEElS2_ILl1ELl1000000000EEEENSt9enable_ifIXsrNS_13__is_durationIT_EE5valueES8_E4typeERKNS1_IT0_T1_EE, @function
_ZNSt6chrono13duration_castINS_8durationIlSt5ratioILl1ELl1000000EEEElS2_ILl1ELl1000000000EEEENSt9enable_ifIXsrNS_13__is_durationIT_EE5valueES8_E4typeERKNS1_IT0_T1_EE:
.LFB2724:
	.loc 1 194 0
	.cfi_startproc
	pushq	%rbp
	.cfi_def_cfa_offset 16
	.cfi_offset 6, -16
	movq	%rsp, %rbp
	.cfi_def_cfa_register 6
	subq	$16, %rsp
	movq	%rdi, -8(%rbp)
	.loc 1 203 0
	movq	-8(%rbp), %rax
	movq	%rax, %rdi
	call	_ZNSt6chrono20__duration_cast_implINS_8durationIlSt5ratioILl1ELl1000000EEEES2_ILl1ELl1000EElLb1ELb0EE6__castIlS2_ILl1ELl1000000000EEEES4_RKNS1_IT_T0_EE
	.loc 1 204 0
	leave
	.cfi_def_cfa 7, 8
	ret
	.cfi_endproc
.LFE2724:
	.size	_ZNSt6chrono13duration_castINS_8durationIlSt5ratioILl1ELl1000000EEEElS2_ILl1ELl1000000000EEEENSt9enable_ifIXsrNS_13__is_durationIT_EE5valueES8_E4typeERKNS1_IT0_T1_EE, .-_ZNSt6chrono13duration_castINS_8durationIlSt5ratioILl1ELl1000000EEEElS2_ILl1ELl1000000000EEEENSt9enable_ifIXsrNS_13__is_durationIT_EE5valueES8_E4typeERKNS1_IT0_T1_EE
	.section	.text._ZNKSt6chrono8durationIlSt5ratioILl1ELl1000000EEE5countEv,"axG",@progbits,_ZNKSt6chrono8durationIlSt5ratioILl1ELl1000000EEE5countEv,comdat
	.align 2
	.weak	_ZNKSt6chrono8durationIlSt5ratioILl1ELl1000000EEE5countEv
	.type	_ZNKSt6chrono8durationIlSt5ratioILl1ELl1000000EEE5countEv, @function
_ZNKSt6chrono8durationIlSt5ratioILl1ELl1000000EEE5countEv:
.LFB2729:
	.loc 1 342 0
	.cfi_startproc
	pushq	%rbp
	.cfi_def_cfa_offset 16
	.cfi_offset 6, -16
	movq	%rsp, %rbp
	.cfi_def_cfa_register 6
	movq	%rdi, -8(%rbp)
	.loc 1 343 0
	movq	-8(%rbp), %rax
	movq	(%rax), %rax
	popq	%rbp
	.cfi_def_cfa 7, 8
	ret
	.cfi_endproc
.LFE2729:
	.size	_ZNKSt6chrono8durationIlSt5ratioILl1ELl1000000EEE5countEv, .-_ZNKSt6chrono8durationIlSt5ratioILl1ELl1000000EEE5countEv
	.section	.rodata
.LC2:
	.string	"User Threading Duration: "
.LC3:
	.string	"x %d \n"
	.text
	.globl	main
	.type	main, @function
main:
.LFB2721:
	.loc 2 52 0
	.cfi_startproc
	pushq	%rbp
	.cfi_def_cfa_offset 16
	.cfi_offset 6, -16
	movq	%rsp, %rbp
	.cfi_def_cfa_register 6
	pushq	%rbx
	subq	$328, %rsp
	.cfi_offset 3, -24
	.loc 2 52 0
	movq	%fs:40, %rax
	movq	%rax, -24(%rbp)
	xorl	%eax, %eax
	.loc 2 55 0
	call	_ZNSt6chrono3_V212system_clock3nowEv@PLT
	movq	%rax, -336(%rbp)
	.loc 2 60 0
	leaq	-328(%rbp), %rax
	movl	$0, %ecx
	leaq	_Z3th1Pv(%rip), %rdx
	movl	$0, %esi
	movq	%rax, %rdi
	call	pthread_create@PLT
	.loc 2 74 0
	leaq	-288(%rbp), %rax
	movq	%rax, %rsi
	movl	$0, %eax
	movl	$16, %edx
	movq	%rsi, %rdi
	movq	%rdx, %rcx
	rep stosq
.LBB6:
	.loc 2 75 0
	movq	$0, -296(%rbp)
	movq	-296(%rbp), %rax
	cmpq	$1023, %rax
	ja	.L32
	.loc 2 75 0 is_stmt 0 discriminator 1
	movq	-296(%rbp), %rax
	shrq	$6, %rax
	leaq	0(,%rax,8), %rdx
	leaq	-288(%rbp), %rcx
	addq	%rcx, %rdx
	movq	(%rdx), %rdx
	movq	-296(%rbp), %rcx
	andl	$63, %ecx
	movl	$1, %esi
	salq	%cl, %rsi
	movq	%rsi, %rcx
	leaq	0(,%rax,8), %rsi
	leaq	-288(%rbp), %rax
	addq	%rsi, %rax
	orq	%rcx, %rdx
	movq	%rdx, (%rax)
.L32:
.LBE6:
	.loc 2 76 0 is_stmt 1 discriminator 4
	movq	-328(%rbp), %rax
	leaq	-288(%rbp), %rdx
	movl	$128, %esi
	movq	%rax, %rdi
	call	pthread_setaffinity_np@PLT
	.loc 2 78 0 discriminator 4
	leaq	-320(%rbp), %rax
	movl	$0, %ecx
	leaq	_Z3th2Pv(%rip), %rdx
	movl	$0, %esi
	movq	%rax, %rdi
	call	pthread_create@PLT
	.loc 2 82 0 discriminator 4
	leaq	-160(%rbp), %rax
	movq	%rax, %rsi
	movl	$0, %eax
	movl	$16, %edx
	movq	%rsi, %rdi
	movq	%rdx, %rcx
	rep stosq
.LBB7:
	.loc 2 83 0 discriminator 4
	movq	$1, -296(%rbp)
	movq	-296(%rbp), %rax
	cmpq	$1023, %rax
	ja	.L34
	.loc 2 83 0 is_stmt 0 discriminator 1
	movq	-296(%rbp), %rax
	shrq	$6, %rax
	leaq	0(,%rax,8), %rdx
	leaq	-160(%rbp), %rcx
	addq	%rcx, %rdx
	movq	(%rdx), %rdx
	movq	-296(%rbp), %rcx
	andl	$63, %ecx
	movl	$1, %esi
	salq	%cl, %rsi
	movq	%rsi, %rcx
	leaq	0(,%rax,8), %rsi
	leaq	-160(%rbp), %rax
	addq	%rsi, %rax
	orq	%rcx, %rdx
	movq	%rdx, (%rax)
.L34:
.LBE7:
	.loc 2 84 0 is_stmt 1 discriminator 4
	movq	-320(%rbp), %rax
	leaq	-160(%rbp), %rdx
	movl	$128, %esi
	movq	%rax, %rdi
	call	pthread_setaffinity_np@PLT
	.loc 2 86 0 discriminator 4
	movq	-328(%rbp), %rax
	movl	$0, %esi
	movq	%rax, %rdi
	call	pthread_join@PLT
	.loc 2 87 0 discriminator 4
	movq	-320(%rbp), %rax
	movl	$0, %esi
	movq	%rax, %rdi
	call	pthread_join@PLT
	.loc 2 90 0 discriminator 4
	call	_ZNSt6chrono3_V212system_clock3nowEv@PLT
	movq	%rax, -312(%rbp)
	.loc 2 91 0 discriminator 4
	leaq	-336(%rbp), %rdx
	leaq	-312(%rbp), %rax
	movq	%rdx, %rsi
	movq	%rax, %rdi
	call	_ZNSt6chronomiINS_3_V212system_clockENS_8durationIlSt5ratioILl1ELl1000000000EEEES6_EENSt11common_typeIJT0_T1_EE4typeERKNS_10time_pointIT_S8_EERKNSC_ISD_S9_EE
	movq	%rax, -296(%rbp)
	leaq	-296(%rbp), %rax
	movq	%rax, %rdi
	call	_ZNSt6chrono13duration_castINS_8durationIlSt5ratioILl1ELl1000000EEEElS2_ILl1ELl1000000000EEEENSt9enable_ifIXsrNS_13__is_durationIT_EE5valueES8_E4typeERKNS1_IT0_T1_EE
	movq	%rax, -304(%rbp)
	.loc 2 92 0 discriminator 4
	leaq	.LC2(%rip), %rsi
	leaq	_ZSt4cout(%rip), %rdi
	call	_ZStlsISt11char_traitsIcEERSt13basic_ostreamIcT_ES5_PKc@PLT
	movq	%rax, %rbx
	leaq	-304(%rbp), %rax
	movq	%rax, %rdi
	call	_ZNKSt6chrono8durationIlSt5ratioILl1ELl1000000EEE5countEv
	movq	%rax, %rsi
	movq	%rbx, %rdi
	call	_ZNSolsEl@PLT
	movq	%rax, %rdx
	movq	_ZSt4endlIcSt11char_traitsIcEERSt13basic_ostreamIT_T0_ES6_@GOTPCREL(%rip), %rax
	movq	%rax, %rsi
	movq	%rdx, %rdi
	call	_ZNSolsEPFRSoS_E@PLT
	.loc 2 94 0 discriminator 4
	movl	x(%rip), %eax
	movl	%eax, %esi
	leaq	.LC3(%rip), %rdi
	movl	$0, %eax
	call	printf@PLT
	.loc 2 96 0 discriminator 4
	movl	$0, %eax
	movq	-24(%rbp), %rbx
	xorq	%fs:40, %rbx
	je	.L36
	.loc 2 96 0 is_stmt 0
	call	__stack_chk_fail@PLT
.L36:
	addq	$328, %rsp
	popq	%rbx
	popq	%rbp
	.cfi_def_cfa 7, 8
	ret
	.cfi_endproc
.LFE2721:
	.size	main, .-main
	.type	_Z41__static_initialization_and_destruction_0ii, @function
_Z41__static_initialization_and_destruction_0ii:
.LFB3244:
	.loc 2 96 0 is_stmt 1
	.cfi_startproc
	pushq	%rbp
	.cfi_def_cfa_offset 16
	.cfi_offset 6, -16
	movq	%rsp, %rbp
	.cfi_def_cfa_register 6
	subq	$16, %rsp
	movl	%edi, -4(%rbp)
	movl	%esi, -8(%rbp)
	.loc 2 96 0
	cmpl	$1, -4(%rbp)
	jne	.L39
	.loc 2 96 0 is_stmt 0 discriminator 1
	cmpl	$65535, -8(%rbp)
	jne	.L39
	.file 3 "/usr/include/c++/7/iostream"
	.loc 3 74 0 is_stmt 1
	leaq	_ZStL8__ioinit(%rip), %rdi
	call	_ZNSt8ios_base4InitC1Ev@PLT
	leaq	__dso_handle(%rip), %rdx
	leaq	_ZStL8__ioinit(%rip), %rsi
	movq	_ZNSt8ios_base4InitD1Ev@GOTPCREL(%rip), %rax
	movq	%rax, %rdi
	call	__cxa_atexit@PLT
.L39:
	.loc 2 96 0
	nop
	leave
	.cfi_def_cfa 7, 8
	ret
	.cfi_endproc
.LFE3244:
	.size	_Z41__static_initialization_and_destruction_0ii, .-_Z41__static_initialization_and_destruction_0ii
	.type	_GLOBAL__sub_I_x, @function
_GLOBAL__sub_I_x:
.LFB3245:
	.loc 2 96 0
	.cfi_startproc
	pushq	%rbp
	.cfi_def_cfa_offset 16
	.cfi_offset 6, -16
	movq	%rsp, %rbp
	.cfi_def_cfa_register 6
	.loc 2 96 0
	movl	$65535, %esi
	movl	$1, %edi
	call	_Z41__static_initialization_and_destruction_0ii
	popq	%rbp
	.cfi_def_cfa 7, 8
	ret
	.cfi_endproc
.LFE3245:
	.size	_GLOBAL__sub_I_x, .-_GLOBAL__sub_I_x
	.section	.init_array,"aw"
	.align 8
	.quad	_GLOBAL__sub_I_x
	.text
.Letext0:
	.file 4 "/usr/include/c++/7/cwchar"
	.file 5 "/usr/include/c++/7/new"
	.file 6 "/usr/include/c++/7/bits/exception_ptr.h"
	.file 7 "/usr/include/c++/7/type_traits"
	.file 8 "/usr/include/x86_64-linux-gnu/c++/7/bits/c++config.h"
	.file 9 "/usr/include/c++/7/bits/cpp_type_traits.h"
	.file 10 "/usr/include/c++/7/bits/stl_pair.h"
	.file 11 "/usr/include/c++/7/debug/debug.h"
	.file 12 "/usr/include/c++/7/bits/char_traits.h"
	.file 13 "/usr/include/c++/7/cstdint"
	.file 14 "/usr/include/c++/7/clocale"
	.file 15 "/usr/include/c++/7/cstdlib"
	.file 16 "/usr/include/c++/7/cstdio"
	.file 17 "/usr/include/c++/7/bits/basic_string.h"
	.file 18 "/usr/include/c++/7/system_error"
	.file 19 "/usr/include/c++/7/bits/ios_base.h"
	.file 20 "/usr/include/c++/7/cwctype"
	.file 21 "/usr/include/c++/7/iosfwd"
	.file 22 "/usr/include/c++/7/ctime"
	.file 23 "<built-in>"
	.file 24 "/usr/include/c++/7/ratio"
	.file 25 "/usr/include/c++/7/bits/uses_allocator.h"
	.file 26 "/usr/include/c++/7/tuple"
	.file 27 "/usr/include/c++/7/bits/shared_ptr_base.h"
	.file 28 "/usr/include/c++/7/thread"
	.file 29 "/usr/include/c++/7/bits/unique_ptr.h"
	.file 30 "/usr/include/c++/7/bits/predefined_ops.h"
	.file 31 "/usr/include/c++/7/ext/new_allocator.h"
	.file 32 "/usr/include/c++/7/ext/numeric_traits.h"
	.file 33 "/usr/lib/gcc/x86_64-linux-gnu/7/include/stddef.h"
	.file 34 "/usr/include/x86_64-linux-gnu/bits/types/wint_t.h"
	.file 35 "/usr/include/x86_64-linux-gnu/bits/types/__mbstate_t.h"
	.file 36 "/usr/include/x86_64-linux-gnu/bits/types/mbstate_t.h"
	.file 37 "/usr/include/x86_64-linux-gnu/bits/types/__FILE.h"
	.file 38 "/usr/include/x86_64-linux-gnu/bits/libio.h"
	.file 39 "/usr/include/x86_64-linux-gnu/bits/types/FILE.h"
	.file 40 "/usr/include/wchar.h"
	.file 41 "/usr/include/x86_64-linux-gnu/bits/types/struct_tm.h"
	.file 42 "/usr/include/x86_64-linux-gnu/bits/types.h"
	.file 43 "/usr/include/x86_64-linux-gnu/bits/stdint-intn.h"
	.file 44 "/usr/include/x86_64-linux-gnu/bits/stdint-uintn.h"
	.file 45 "/usr/include/stdint.h"
	.file 46 "/usr/include/locale.h"
	.file 47 "/usr/include/x86_64-linux-gnu/bits/types/time_t.h"
	.file 48 "/usr/include/x86_64-linux-gnu/bits/cpu-set.h"
	.file 49 "/usr/include/x86_64-linux-gnu/bits/types/clock_t.h"
	.file 50 "/usr/include/c++/7/ext/concurrence.h"
	.file 51 "/usr/include/time.h"
	.file 52 "/usr/include/x86_64-linux-gnu/bits/pthreadtypes.h"
	.file 53 "/usr/include/pthread.h"
	.file 54 "/usr/include/x86_64-linux-gnu/c++/7/bits/gthr-default.h"
	.file 55 "/usr/include/x86_64-linux-gnu/c++/7/bits/atomic_word.h"
	.file 56 "/usr/include/stdlib.h"
	.file 57 "/usr/include/x86_64-linux-gnu/bits/_G_config.h"
	.file 58 "/usr/include/stdio.h"
	.file 59 "/usr/include/x86_64-linux-gnu/bits/sys_errlist.h"
	.file 60 "/usr/include/errno.h"
	.file 61 "/usr/include/x86_64-linux-gnu/bits/wctype-wchar.h"
	.file 62 "/usr/include/wctype.h"
	.section	.note.GNU-stack,"",@progbits
